; ModuleID = '37/1052.c'
source_filename = "37/1052.c"
target datalayout = "e-m:e-p270:32:32-p271:32:32-p272:64:64-i64:64-f80:128-n8:16:32:64-S128"
target triple = "x86_64-pc-linux-gnu"

@.str = private unnamed_addr constant [3 x i8] c"%d\00", align 1
@.str.1 = private unnamed_addr constant [4 x i8] c"no\0A\00", align 1
@.str.2 = private unnamed_addr constant [4 x i8] c"%c\0A\00", align 1

; Function Attrs: noinline nounwind uwtable
define dso_local signext i8 @yici(i8* %0) #0 {
  %2 = alloca i8, align 1
  %3 = alloca i8*, align 8
  %4 = alloca i32, align 4
  %5 = alloca i32, align 4
  %6 = alloca i32, align 4
  %7 = alloca i32, align 4
  %8 = alloca i8, align 1
  store i8* %0, i8** %3, align 8
  store i32 0, i32* %6, align 4
  store i32 0, i32* %7, align 4
  store i32 0, i32* %4, align 4
  br label %9

9:                                                ; preds = %54, %1
  %10 = load i32, i32* %4, align 4
  %11 = sext i32 %10 to i64
  %12 = load i8*, i8** %3, align 8
  %13 = call i64 @strlen(i8* %12) #3
  %14 = icmp ult i64 %11, %13
  br i1 %14, label %15, label %57

15:                                               ; preds = %9
  store i32 0, i32* %5, align 4
  br label %16

16:                                               ; preds = %40, %15
  %17 = load i32, i32* %5, align 4
  %18 = sext i32 %17 to i64
  %19 = load i8*, i8** %3, align 8
  %20 = call i64 @strlen(i8* %19) #3
  %21 = icmp ult i64 %18, %20
  br i1 %21, label %22, label %43

22:                                               ; preds = %16
  %23 = load i8*, i8** %3, align 8
  %24 = load i32, i32* %4, align 4
  %25 = sext i32 %24 to i64
  %26 = getelementptr inbounds i8, i8* %23, i64 %25
  %27 = load i8, i8* %26, align 1
  %28 = sext i8 %27 to i32
  %29 = load i8*, i8** %3, align 8
  %30 = load i32, i32* %5, align 4
  %31 = sext i32 %30 to i64
  %32 = getelementptr inbounds i8, i8* %29, i64 %31
  %33 = load i8, i8* %32, align 1
  %34 = sext i8 %33 to i32
  %35 = icmp eq i32 %28, %34
  br i1 %35, label %36, label %39

36:                                               ; preds = %22
  %37 = load i32, i32* %6, align 4
  %38 = add nsw i32 %37, 1
  store i32 %38, i32* %6, align 4
  br label %39

39:                                               ; preds = %36, %22
  br label %40

40:                                               ; preds = %39
  %41 = load i32, i32* %5, align 4
  %42 = add nsw i32 %41, 1
  store i32 %42, i32* %5, align 4
  br label %16

43:                                               ; preds = %16
  %44 = load i32, i32* %6, align 4
  %45 = icmp eq i32 %44, 1
  br i1 %45, label %46, label %52

46:                                               ; preds = %43
  %47 = load i8*, i8** %3, align 8
  %48 = load i32, i32* %4, align 4
  %49 = sext i32 %48 to i64
  %50 = getelementptr inbounds i8, i8* %47, i64 %49
  %51 = load i8, i8* %50, align 1
  store i8 %51, i8* %8, align 1
  store i32 1, i32* %7, align 4
  br label %57

52:                                               ; preds = %43
  store i32 0, i32* %6, align 4
  br label %53

53:                                               ; preds = %52
  br label %54

54:                                               ; preds = %53
  %55 = load i32, i32* %4, align 4
  %56 = add nsw i32 %55, 1
  store i32 %56, i32* %4, align 4
  br label %9

57:                                               ; preds = %46, %9
  %58 = load i32, i32* %7, align 4
  %59 = icmp eq i32 %58, 1
  br i1 %59, label %60, label %62

60:                                               ; preds = %57
  %61 = load i8, i8* %8, align 1
  store i8 %61, i8* %2, align 1
  br label %63

62:                                               ; preds = %57
  store i8 48, i8* %2, align 1
  br label %63

63:                                               ; preds = %62, %60
  %64 = load i8, i8* %2, align 1
  ret i8 %64
}

; Function Attrs: nounwind readonly
declare dso_local i64 @strlen(i8*) #1

; Function Attrs: noinline nounwind uwtable
define dso_local void @main() #0 {
  %1 = alloca [100000 x i8], align 16
  %2 = alloca i32, align 4
  %3 = alloca i32, align 4
  %4 = alloca i32, align 4
  %5 = alloca i32, align 4
  %6 = alloca i32, align 4
  store i32 0, i32* %5, align 4
  %7 = call i32 (i8*, ...) @__isoc99_scanf(i8* getelementptr inbounds ([3 x i8], [3 x i8]* @.str, i64 0, i64 0), i32* %2)
  %8 = call i32 @getchar()
  store i32 0, i32* %3, align 4
  br label %9

9:                                                ; preds = %28, %0
  %10 = load i32, i32* %3, align 4
  %11 = load i32, i32* %2, align 4
  %12 = icmp slt i32 %10, %11
  br i1 %12, label %13, label %31

13:                                               ; preds = %9
  %14 = getelementptr inbounds [100000 x i8], [100000 x i8]* %1, i64 0, i64 0
  %15 = call i32 (i8*, ...) bitcast (i32 (...)* @gets to i32 (i8*, ...)*)(i8* %14)
  %16 = getelementptr inbounds [100000 x i8], [100000 x i8]* %1, i64 0, i64 0
  %17 = call signext i8 @yici(i8* %16)
  %18 = sext i8 %17 to i32
  %19 = icmp eq i32 %18, 48
  br i1 %19, label %20, label %22

20:                                               ; preds = %13
  %21 = call i32 (i8*, ...) @printf(i8* getelementptr inbounds ([4 x i8], [4 x i8]* @.str.1, i64 0, i64 0))
  br label %27

22:                                               ; preds = %13
  %23 = getelementptr inbounds [100000 x i8], [100000 x i8]* %1, i64 0, i64 0
  %24 = call signext i8 @yici(i8* %23)
  %25 = sext i8 %24 to i32
  %26 = call i32 (i8*, ...) @printf(i8* getelementptr inbounds ([4 x i8], [4 x i8]* @.str.2, i64 0, i64 0), i32 %25)
  br label %27

27:                                               ; preds = %22, %20
  br label %28

28:                                               ; preds = %27
  %29 = load i32, i32* %3, align 4
  %30 = add nsw i32 %29, 1
  store i32 %30, i32* %3, align 4
  br label %9

31:                                               ; preds = %9
  ret void
}

declare dso_local i32 @__isoc99_scanf(i8*, ...) #2

declare dso_local i32 @getchar() #2

declare dso_local i32 @gets(...) #2

declare dso_local i32 @printf(i8*, ...) #2


!llvm.module.flags = !{!0}
!llvm.ident = !{!1}

!0 = !{i32 1, !"wchar_size", i32 4}
!1 = !{!"clang version 10.0.0-4ubuntu1 "}
